; Function Attrs: mustprogress uwtable
define void @grpc_slice_buffer_destroy(ptr noundef %0) local_unnamed_addr #3 {
  %2 = getelementptr inbounds nuw i8, ptr %0, i64 16
  %3 = load i64, ptr %2, align 8, !tbaa !13
  %.not.i = icmp eq i64 %3, 0
  br i1 %.not.i, label %grpc_slice_buffer_reset_and_unref.exit, label %.lr.ph.i

.lr.ph.i:                                         ; preds = %1
  %4 = getelementptr inbounds nuw i8, ptr %0, i64 8
  br label %5

5:                                                ; preds = %_ZN9grpc_core11CSliceUnrefERK10grpc_sliceNS_13DebugLocationE.exit.i, %.lr.ph.i
  %.08.i = phi i64 [ 0, %.lr.ph.i ], [ %16, %_ZN9grpc_core11CSliceUnrefERK10grpc_sliceNS_13DebugLocationE.exit.i ]
  %6 = load ptr, ptr %4, align 8, !tbaa !17
  %7 = getelementptr inbounds nuw %struct.grpc_slice, ptr %6, i64 %.08.i
  %8 = load ptr, ptr %7, align 8, !tbaa !18
  %9 = icmp ugt ptr %8, inttoptr (i64 1 to ptr)
  br i1 %9, label %10, label %_ZN9grpc_core11CSliceUnrefERK10grpc_sliceNS_13DebugLocationE.exit.i

10:                                               ; preds = %5
  %11 = atomicrmw sub ptr %8, i64 1 acq_rel, align 8
  %12 = icmp eq i64 %11, 1
  br i1 %12, label %13, label %_ZN9grpc_core11CSliceUnrefERK10grpc_sliceNS_13DebugLocationE.exit.i

13:                                               ; preds = %10
  %14 = getelementptr inbounds nuw i8, ptr %8, i64 8
  %15 = load ptr, ptr %14, align 8, !tbaa !21
  tail call void %15(ptr noundef nonnull align 8 dereferenceable(16) %8)
  br label %_ZN9grpc_core11CSliceUnrefERK10grpc_sliceNS_13DebugLocationE.exit.i

_ZN9grpc_core11CSliceUnrefERK10grpc_sliceNS_13DebugLocationE.exit.i: ; preds = %13, %10, %5
  %16 = add nuw i64 %.08.i, 1
  %17 = load i64, ptr %2, align 8, !tbaa !13
  %18 = icmp ult i64 %16, %17
  br i1 %18, label %5, label %grpc_slice_buffer_reset_and_unref.exit, !llvm.loop !62

grpc_slice_buffer_reset_and_unref.exit:           ; preds = %_ZN9grpc_core11CSliceUnrefERK10grpc_sliceNS_13DebugLocationE.exit.i, %1
  store i64 0, ptr %2, align 8, !tbaa !13
  %19 = getelementptr inbounds nuw i8, ptr %0, i64 32
  store i64 0, ptr %19, align 8, !tbaa !20
  %20 = load ptr, ptr %0, align 8, !tbaa !25
  %21 = getelementptr inbounds nuw i8, ptr %0, i64 8
  store ptr %20, ptr %21, align 8, !tbaa !17
  %22 = getelementptr inbounds nuw i8, ptr %0, i64 40
  %.not = icmp eq ptr %20, %22
  br i1 %.not, label %24, label %23

23:                                               ; preds = %grpc_slice_buffer_reset_and_unref.exit
  tail call void @gpr_free(ptr noundef %20)
  store ptr %22, ptr %21, align 8, !tbaa !17
  store ptr %22, ptr %0, align 8, !tbaa !25
  br label %24

24:                                               ; preds = %23, %grpc_slice_buffer_reset_and_unref.exit
  ret void
}